; Function Attrs: null_pointer_is_valid sspstrong uwtable
define hidden i32 @mapi_dissect_struct_ReadPerUserInformation_req(ptr noundef %0, i32 noundef %1, ptr noundef %2, ptr noundef %3, ptr noundef %4, ptr noundef %5, i32 noundef %6, i32 %7) local_unnamed_addr #0 {
  %9 = getelementptr inbounds nuw i8, ptr %4, i64 26
  %10 = load i8, ptr %9, align 2, !range !9, !noundef !10
  store i8 1, ptr %9, align 2
  %.not = icmp eq ptr %3, null
  br i1 %.not, label %15, label %11

11:                                               ; preds = %8
  %12 = tail call ptr @proto_tree_add_item(ptr noundef nonnull %3, i32 noundef %6, ptr noundef %0, i32 noundef %1, i32 noundef -1, i32 noundef 0)
  %13 = load i32, ptr @ett_mapi_ReadPerUserInformation_req, align 4
  %14 = tail call ptr @proto_item_add_subtree(ptr noundef %12, i32 noundef %13)
  br label %15

15:                                               ; preds = %11, %8
  %.050 = phi ptr [ %14, %11 ], [ null, %8 ]
  %.0 = phi ptr [ %12, %11 ], [ null, %8 ]
  %16 = load i32, ptr @hf_mapi_LogonId, align 4
  %17 = tail call i32 @PIDL_dissect_uint8(ptr noundef %0, i32 noundef %1, ptr noundef %2, ptr noundef %.050, ptr noundef %4, ptr noundef %5, i32 noundef %16, i32 noundef 0)
  %18 = load i32, ptr @hf_mapi_InputHandleIndex, align 4
  %19 = tail call i32 @PIDL_dissect_uint8(ptr noundef %0, i32 noundef %17, ptr noundef %2, ptr noundef %.050, ptr noundef %4, ptr noundef %5, i32 noundef %18, i32 noundef 0)
  br label %20

20:                                               ; preds = %20, %15
  %.010.i = phi i32 [ 0, %15 ], [ %23, %20 ]
  %.089.i = phi i32 [ %19, %15 ], [ %22, %20 ]
  %21 = load i32, ptr @hf_mapi_ReadPerUserInformation_req_FolderId, align 4
  %22 = tail call i32 @PIDL_dissect_uint8(ptr noundef %0, i32 noundef %.089.i, ptr noundef %2, ptr noundef %.050, ptr noundef %4, ptr noundef %5, i32 noundef %21, i32 noundef 0)
  %23 = add nuw nsw i32 %.010.i, 1
  %exitcond.not.i = icmp eq i32 %23, 24
  br i1 %exitcond.not.i, label %mapi_dissect_element_ReadPerUserInformation_req_FolderId.exit, label %20, !llvm.loop !20

mapi_dissect_element_ReadPerUserInformation_req_FolderId.exit: ; preds = %20
  %24 = load i32, ptr @hf_mapi_ReadPerUserInformation_req_WhatIfChanged, align 4
  %25 = tail call i32 @PIDL_dissect_uint8(ptr noundef %0, i32 noundef %22, ptr noundef %2, ptr noundef %.050, ptr noundef %4, ptr noundef %5, i32 noundef %24, i32 noundef 0)
  %26 = load i32, ptr @hf_mapi_ReadPerUserInformation_req_DataOffset, align 4
  %27 = tail call i32 @PIDL_dissect_uint32(ptr noundef %0, i32 noundef %25, ptr noundef %2, ptr noundef %.050, ptr noundef %4, ptr noundef %5, i32 noundef %26, i32 noundef 0)
  %28 = load i32, ptr @hf_mapi_ReadPerUserInformation_req_MaxDataSize, align 4
  %29 = tail call i32 @PIDL_dissect_uint16(ptr noundef %0, i32 noundef %27, ptr noundef %2, ptr noundef %.050, ptr noundef %4, ptr noundef %5, i32 noundef %28, i32 noundef 0)
  %30 = sub i32 %29, %1
  tail call void @proto_item_set_len(ptr noundef %.0, i32 noundef %30)
  store i8 %10, ptr %9, align 2
  ret i32 %29
}